Certificate:
    Data:
        Version: 3 (0x2)
        Serial Number: 4096 (0x1000)
    Signature Algorithm: sha1WithRSAEncryption
        Issuer: C=US, ST=IN, O=Internet Widgits Pty Ltd, CN=chen3194/emailAddress=chen3194@purdue.edu
        Validity
            Not Before: Feb 27 22:30:16 2024 GMT
            Not After : Feb 26 22:30:16 2025 GMT
        Subject: C=US, ST=IN, O=Internet Widgits Pty Ltd, CN=chen3194/emailAddress=chen3194@purdue.edu
        Subject Public Key Info:
            Public Key Algorithm: rsaEncryption
                Public-Key: (1024 bit)
                Modulus:
                    00:c5:7f:ad:96:b4:36:8d:96:45:ed:58:09:c5:00:
                    7c:7f:e5:ff:cf:4b:5a:43:f6:3b:43:db:38:d2:6e:
                    65:a7:ed:7f:ec:25:d8:4a:5d:ec:6a:3e:56:1f:29:
                    ac:5d:22:11:48:78:22:e4:86:e8:b3:bf:c1:09:40:
                    1e:d2:9d:5a:1a:21:d1:23:2d:63:d8:1e:a5:0f:cf:
                    b4:ee:3c:39:ba:25:2d:c1:fe:d0:45:ae:52:1a:40:
                    d4:bc:87:0e:88:77:07:e5:9c:83:58:88:31:cd:4c:
                    25:ec:7f:b4:1a:8b:c2:45:e2:a3:59:36:10:62:ce:
                    58:cc:ab:2c:72:94:e9:f8:c1
                Exponent: 65537 (0x10001)
        X509v3 extensions:
            X509v3 Basic Constraints: 
                CA:FALSE
            Netscape Comment: 
                OpenSSL Generated Certificate
            X509v3 Subject Key Identifier: 
                9D:94:A2:CA:AC:EF:F8:15:53:4A:74:47:26:A9:7C:28:D4:77:59:21
            X509v3 Authority Key Identifier: 
                keyid:0B:4B:83:2D:B6:23:70:35:23:36:76:04:C3:14:B5:E5:34:6E:01:87

    Signature Algorithm: sha1WithRSAEncryption
         b0:0b:da:c7:16:4f:ee:c0:f0:51:7e:ab:86:30:f0:51:f7:c5:
         f4:ed:f3:ad:a7:cb:ca:d6:53:7c:ab:f3:9f:1a:ab:32:de:9b:
         fd:cb:ce:d3:3f:ef:d2:7a:ca:90:1f:ce:83:9a:66:9d:b9:da:
         00:e8:e4:1b:94:3b:1b:71:e7:c8:d5:fe:4c:42:21:45:94:2f:
         0c:c9:4f:1c:1f:3f:a6:d7:02:12:64:23:78:64:eb:c3:67:87:
         0f:f1:32:21:87:ec:67:f6:79:83:61:7c:90:70:81:ca:5a:43:
         d2:06:36:e7:8e:d0:64:eb:7c:8b:c5:2e:88:ff:96:2d:70:8a:
         2f:fb
-----BEGIN CERTIFICATE-----
MIIC2jCCAkOgAwIBAgICEAAwDQYJKoZIhvcNAQEFBQAwdDELMAkGA1UEBhMCVVMx
CzAJBgNVBAgMAklOMSEwHwYDVQQKDBhJbnRlcm5ldCBXaWRnaXRzIFB0eSBMdGQx
ETAPBgNVBAMMCGNoZW4zMTk0MSIwIAYJKoZIhvcNAQkBFhNjaGVuMzE5NEBwdXJk
dWUuZWR1MB4XDTI0MDIyNzIyMzAxNloXDTI1MDIyNjIyMzAxNlowdDELMAkGA1UE
BhMCVVMxCzAJBgNVBAgMAklOMSEwHwYDVQQKDBhJbnRlcm5ldCBXaWRnaXRzIFB0
eSBMdGQxETAPBgNVBAMMCGNoZW4zMTk0MSIwIAYJKoZIhvcNAQkBFhNjaGVuMzE5
NEBwdXJkdWUuZWR1MIGfMA0GCSqGSIb3DQEBAQUAA4GNADCBiQKBgQDFf62WtDaN
lkXtWAnFAHx/5f/PS1pD9jtD2zjSbmWn7X/sJdhKXexqPlYfKaxdIhFIeCLkhuiz
v8EJQB7SnVoaIdEjLWPYHqUPz7TuPDm6JS3B/tBFrlIaQNS8hw6IdwflnINYiDHN
TCXsf7Qai8JF4qNZNhBizljMqyxylOn4wQIDAQABo3sweTAJBgNVHRMEAjAAMCwG
CWCGSAGG+EIBDQQfFh1PcGVuU1NMIEdlbmVyYXRlZCBDZXJ0aWZpY2F0ZTAdBgNV
HQ4EFgQUnZSiyqzv+BVTSnRHJql8KNR3WSEwHwYDVR0jBBgwFoAUC0uDLbYjcDUj
NnYEwxS15TRuAYcwDQYJKoZIhvcNAQEFBQADgYEAsAvaxxZP7sDwUX6rhjDwUffF
9O3zrafLytZTfKvznxqrMt6b/cvO0z/v0nrKkB/Og5pmnbnaAOjkG5Q7G3HnyNX+
aEIhRZQvDMlPHB8/ptcCEmQjeGTrw2eHD/EyIYfsZ/Z5g2F8kHCBylpD0gY2547Q
ZOt8i8UuiP+WLXCKL/s=
-----END CERTIFICATE-----
