Certificate:
    Data:
        Version: 3 (0x2)
        Serial Number: 4097 (0x1001)
    Signature Algorithm: sha1WithRSAEncryption
        Issuer: C=US, ST=IN, O=Internet Widgits Pty Ltd, CN=chen3194/emailAddress=chen3194@purdue.edu
        Validity
            Not Before: Feb 27 22:33:08 2024 GMT
            Not After : Feb 26 22:33:08 2025 GMT
        Subject: C=US, ST=IN, O=Internet Widgits Pty Ltd, CN=client/emailAddress=chen3194@purdue.edu
        Subject Public Key Info:
            Public Key Algorithm: rsaEncryption
                Public-Key: (1024 bit)
                Modulus:
                    00:a5:19:24:4f:16:a9:02:4a:3d:4f:d5:6a:c0:c6:
                    0b:57:6c:ea:07:9b:57:55:ea:67:fe:b3:73:1b:50:
                    91:93:dc:37:1d:07:ea:63:85:ea:b0:c1:d5:cf:3c:
                    49:b5:26:e1:54:95:c7:a9:e0:46:7a:fb:6a:be:ca:
                    2b:cf:5e:6d:76:20:b1:9c:7b:5c:12:73:93:43:cf:
                    7d:e5:2f:b9:92:18:df:90:67:57:e9:e4:ea:21:9c:
                    5e:24:09:c4:f2:06:e3:d9:4e:a0:1f:66:bf:eb:8d:
                    b9:05:41:a8:77:cc:39:16:5f:14:2c:50:82:45:60:
                    e1:df:73:b4:49:7c:a5:79:85
                Exponent: 65537 (0x10001)
        X509v3 extensions:
            X509v3 Basic Constraints: 
                CA:FALSE
            Netscape Comment: 
                OpenSSL Generated Certificate
            X509v3 Subject Key Identifier: 
                69:D5:5F:F7:B9:2D:24:19:4C:4B:99:C4:59:46:F6:A1:E6:06:1A:52
            X509v3 Authority Key Identifier: 
                keyid:0B:4B:83:2D:B6:23:70:35:23:36:76:04:C3:14:B5:E5:34:6E:01:87

    Signature Algorithm: sha1WithRSAEncryption
         79:6c:72:ac:7a:b2:1d:78:d5:de:a4:f6:3b:6e:02:2c:3c:b5:
         35:84:72:00:22:a4:88:93:f2:df:2b:0a:b6:aa:5e:ae:f7:e6:
         0f:1d:51:17:5d:bc:e0:a5:5c:12:77:fb:be:aa:7b:3b:71:d5:
         95:8d:ce:aa:7f:1e:72:08:e7:e2:74:8c:73:93:5c:8a:c1:32:
         ff:d1:d6:25:97:48:c6:6f:6a:b2:38:37:66:68:c8:8b:7a:72:
         4d:40:71:bc:fc:70:94:75:d0:21:40:5b:54:d0:5b:db:39:e5:
         66:d4:c0:c7:ea:c3:a3:5b:b7:4d:e1:19:a2:fb:e4:dd:f9:60:
         5d:4a
-----BEGIN CERTIFICATE-----
MIIC2DCCAkGgAwIBAgICEAEwDQYJKoZIhvcNAQEFBQAwdDELMAkGA1UEBhMCVVMx
CzAJBgNVBAgMAklOMSEwHwYDVQQKDBhJbnRlcm5ldCBXaWRnaXRzIFB0eSBMdGQx
ETAPBgNVBAMMCGNoZW4zMTk0MSIwIAYJKoZIhvcNAQkBFhNjaGVuMzE5NEBwdXJk
dWUuZWR1MB4XDTI0MDIyNzIyMzMwOFoXDTI1MDIyNjIyMzMwOFowcjELMAkGA1UE
BhMCVVMxCzAJBgNVBAgMAklOMSEwHwYDVQQKDBhJbnRlcm5ldCBXaWRnaXRzIFB0
eSBMdGQxDzANBgNVBAMMBmNsaWVudDEiMCAGCSqGSIb3DQEJARYTY2hlbjMxOTRA
cHVyZHVlLmVkdTCBnzANBgkqhkiG9w0BAQEFAAOBjQAwgYkCgYEApRkkTxapAko9
T9VqwMYLV2zqB5tXVepn/rNzG1CRk9w3HQfqY4XqsMHVzzxJtSbhVJXHqeBGevtq
vsorz15tdiCxnHtcEnOTQ8995S+5khjfkGdX6eTqIZxeJAnE8gbj2U6gH2a/6425
BUGod8w5Fl8ULFCCRWDh33O0SXyleYUCAwEAAaN7MHkwCQYDVR0TBAIwADAsBglg
hkgBhvhCAQ0EHxYdT3BlblNTTCBHZW5lcmF0ZWQgQ2VydGlmaWNhdGUwHQYDVR0O
BBYEFGnVX/e5LSQZTEuZxFlG9qHmBhpSMB8GA1UdIwQYMBaAFAtLgy22I3A1IzZ2
BMMUteU0bgGHMA0GCSqGSIb3DQEBBQUAA4GBAHlscqx6sh141d6k9jtuAiw8tTWE
cgAipIiT8t8rCraqXq735g8dURddvOClXBJ3+76qeztx1ZWNzqp/HnII5+J0jHOT
XIrBMv/R1iWXSMZvarI4N2ZoyIt6ck1Acbz8cJR10CFAW1TQW9s55WbUwMfqw6Nb
t03hGaL75N35YF1K
-----END CERTIFICATE-----
